; Function Attrs: mustprogress nofree norecurse nosync nounwind willreturn memory(argmem: read) uwtable
define dso_local noundef range(i64 0, 23) i64 @_ZNK4i18n12phonenumbers11PhoneNumber30RequiredFieldsByteSizeFallbackEv(ptr noundef nonnull readonly align 8 captures(none) dereferenceable(72) %0) local_unnamed_addr #15 align 2 {
  %2 = getelementptr inbounds nuw i8, ptr %0, i64 16
  %3 = load i32, ptr %2, align 8, !tbaa !33
  %4 = and i32 %3, 8
  %.not = icmp eq i32 %4, 0
  br i1 %.not, label %15, label %5

5:                                                ; preds = %1
  %6 = getelementptr inbounds nuw i8, ptr %0, i64 48
  %7 = load i64, ptr %6, align 8, !tbaa !52
  %8 = or i64 %7, 1
  %9 = tail call range(i64 0, 65) i64 @llvm.ctlz.i64(i64 %8, i1 true)
  %10 = xor i64 %9, 63
  %11 = mul nuw nsw i64 %10, 9
  %12 = add nuw nsw i64 %11, 73
  %13 = lshr i64 %12, 6
  %14 = add nuw nsw i64 %13, 1
  br label %15

15:                                               ; preds = %5, %1
  %.0 = phi i64 [ %14, %5 ], [ 0, %1 ]
  %16 = and i32 %3, 16
  %.not3 = icmp eq i32 %16, 0
  br i1 %.not3, label %30, label %17

17:                                               ; preds = %15
  %18 = getelementptr inbounds nuw i8, ptr %0, i64 56
  %19 = load i32, ptr %18, align 8, !tbaa !51
  %20 = icmp slt i32 %19, 0
  br i1 %20, label %_ZN6google8protobuf8internal14WireFormatLite9Int32SizeEi.exit, label %21

21:                                               ; preds = %17
  %22 = or i32 %19, 1
  %23 = tail call range(i32 0, 33) i32 @llvm.ctlz.i32(i32 %22, i1 true)
  %24 = xor i32 %23, 31
  %25 = mul nuw nsw i32 %24, 9
  %26 = add nuw nsw i32 %25, 73
  %27 = lshr i32 %26, 6
  %narrow = add nuw nsw i32 %27, 1
  %28 = zext nneg i32 %narrow to i64
  br label %_ZN6google8protobuf8internal14WireFormatLite9Int32SizeEi.exit

_ZN6google8protobuf8internal14WireFormatLite9Int32SizeEi.exit: ; preds = %17, %21
  %.0.i.i = phi i64 [ %28, %21 ], [ 11, %17 ]
  %29 = add nuw nsw i64 %.0.i.i, %.0
  br label %30

30:                                               ; preds = %_ZN6google8protobuf8internal14WireFormatLite9Int32SizeEi.exit, %15
  %.1 = phi i64 [ %29, %_ZN6google8protobuf8internal14WireFormatLite9Int32SizeEi.exit ], [ %.0, %15 ]
  ret i64 %.1
}